target datalayout = "e-m:e-p270:32:32-p271:32:32-p272:64:64-i64:64-i128:128-f80:128-n8:16:32:64-S128"
target triple = "x86_64-pc-linux-gnu"

%struct.Aig_Obj_t_ = type { %union.anon, ptr, ptr, i64, i32, i32, %union.anon.0 }
%union.anon = type { ptr }
%union.anon.0 = type { ptr }
%struct.Aig_Man_t_ = type { ptr, ptr, ptr, ptr, ptr, ptr, ptr, %struct.Aig_Obj_t_, i32, i32, i32, i32, i32, i32, [7 x i32], i32, ptr, i32, ptr, i32, ptr, i32, i32, i32, ptr, i32, i32, i32, i32, i32, ptr, ptr, i32, ptr, ptr, i32, ptr, ptr, i32, i32, i32, ptr, ptr, ptr, ptr, ptr, ptr, ptr, ptr, ptr, ptr, ptr, ptr, ptr, ptr, i32, ptr, ptr, ptr, ptr, i32, i64, i64, i64, ptr, ptr }
%struct.Vec_Int_t_ = type { i32, i32, ptr }
%struct.Vec_Ptr_t_ = type { i32, i32, ptr }

; Function Attrs: nounwind uwtable
define internal ptr @Vec_PtrEntry(ptr noundef %0, i32 noundef %1) #0 {
  %3 = alloca ptr, align 8
  %4 = alloca i32, align 4
  store ptr %0, ptr %3, align 8
  store i32 %1, ptr %4, align 4
  %5 = load ptr, ptr %3, align 8
  %6 = getelementptr inbounds %struct.Vec_Ptr_t_, ptr %5, i32 0, i32 2
  %7 = load ptr, ptr %6, align 8
  %8 = load i32, ptr %4, align 4
  %9 = sext i32 %8 to i64
  %10 = getelementptr inbounds ptr, ptr %7, i64 %9
  %11 = load ptr, ptr %10, align 8
  ret ptr %11
}

; Function Attrs: nounwind uwtable
define internal i32 @Aig_ObjId(ptr noundef %0) #0 {
  %2 = alloca ptr, align 8
  store ptr %0, ptr %2, align 8
  %3 = load ptr, ptr %2, align 8
  %4 = getelementptr inbounds %struct.Aig_Obj_t_, ptr %3, i32 0, i32 5
  %5 = load i32, ptr %4, align 4
  ret i32 %5
}

; Function Attrs: nounwind uwtable
define internal i32 @Pdr_ManSimInfoGet(ptr noundef %0, ptr noundef %1) #0 {
  %3 = alloca ptr, align 8
  %4 = alloca ptr, align 8
  store ptr %0, ptr %3, align 8
  store ptr %1, ptr %4, align 8
  %5 = load ptr, ptr %3, align 8
  %6 = getelementptr inbounds %struct.Aig_Man_t_, ptr %5, i32 0, i32 47
  %7 = load ptr, ptr %6, align 8
  %8 = load ptr, ptr %4, align 8
  %9 = call i32 @Aig_ObjId(ptr noundef %8)
  %10 = ashr i32 %9, 4
  %11 = sext i32 %10 to i64
  %12 = getelementptr inbounds i32, ptr %7, i64 %11
  %13 = load i32, ptr %12, align 4
  %14 = load ptr, ptr %4, align 8
  %15 = call i32 @Aig_ObjId(ptr noundef %14)
  %16 = and i32 %15, 15
  %17 = shl i32 %16, 1
  %18 = lshr i32 %13, %17
  %19 = and i32 3, %18
  ret i32 %19
}

; Function Attrs: nounwind uwtable
define internal ptr @Aig_ManObj(ptr noundef %0, i32 noundef %1) #0 {
  %3 = alloca ptr, align 8
  %4 = alloca i32, align 4
  store ptr %0, ptr %3, align 8
  store i32 %1, ptr %4, align 4
  %5 = load ptr, ptr %3, align 8
  %6 = getelementptr inbounds %struct.Aig_Man_t_, ptr %5, i32 0, i32 4
  %7 = load ptr, ptr %6, align 8
  %8 = icmp ne ptr %7, null
  br i1 %8, label %9, label %15

9:                                                ; preds = %2
  %10 = load ptr, ptr %3, align 8
  %11 = getelementptr inbounds %struct.Aig_Man_t_, ptr %10, i32 0, i32 4
  %12 = load ptr, ptr %11, align 8
  %13 = load i32, ptr %4, align 4
  %14 = call ptr @Vec_PtrEntry(ptr noundef %12, i32 noundef %13)
  br label %16

15:                                               ; preds = %2
  br label %16

16:                                               ; preds = %15, %9
  %17 = phi ptr [ %14, %9 ], [ null, %15 ]
  ret ptr %17
}

; Function Attrs: nounwind uwtable
define internal i32 @Vec_IntEntry(ptr noundef %0, i32 noundef %1) #0 {
  %3 = alloca ptr, align 8
  %4 = alloca i32, align 4
  store ptr %0, ptr %3, align 8
  store i32 %1, ptr %4, align 4
  %5 = load ptr, ptr %3, align 8
  %6 = getelementptr inbounds %struct.Vec_Int_t_, ptr %5, i32 0, i32 2
  %7 = load ptr, ptr %6, align 8
  %8 = load i32, ptr %4, align 4
  %9 = sext i32 %8 to i64
  %10 = getelementptr inbounds i32, ptr %7, i64 %9
  %11 = load i32, ptr %10, align 4
  ret i32 %11
}

; Function Attrs: nounwind uwtable
define internal i32 @Vec_IntSize(ptr noundef %0) #0 {
  %2 = alloca ptr, align 8
  store ptr %0, ptr %2, align 8
  %3 = load ptr, ptr %2, align 8
  %4 = getelementptr inbounds %struct.Vec_Int_t_, ptr %3, i32 0, i32 1
  %5 = load i32, ptr %4, align 4
  ret i32 %5
}

; Function Attrs: nounwind uwtable
define internal void @Pdr_ManSimInfoSet(ptr noundef %0, ptr noundef %1, i32 noundef %2) #0 {
  %4 = alloca ptr, align 8
  %5 = alloca ptr, align 8
  %6 = alloca i32, align 4
  store ptr %0, ptr %4, align 8
  store ptr %1, ptr %5, align 8
  store i32 %2, ptr %6, align 4
  %7 = load ptr, ptr %4, align 8
  %8 = load ptr, ptr %5, align 8
  %9 = call i32 @Pdr_ManSimInfoGet(ptr noundef %7, ptr noundef %8)
  %10 = load i32, ptr %6, align 4
  %11 = xor i32 %10, %9
  store i32 %11, ptr %6, align 4
  %12 = load i32, ptr %6, align 4
  %13 = load ptr, ptr %5, align 8
  %14 = call i32 @Aig_ObjId(ptr noundef %13)
  %15 = and i32 %14, 15
  %16 = shl i32 %15, 1
  %17 = shl i32 %12, %16
  %18 = load ptr, ptr %4, align 8
  %19 = getelementptr inbounds %struct.Aig_Man_t_, ptr %18, i32 0, i32 47
  %20 = load ptr, ptr %19, align 8
  %21 = load ptr, ptr %5, align 8
  %22 = call i32 @Aig_ObjId(ptr noundef %21)
  %23 = ashr i32 %22, 4
  %24 = sext i32 %23 to i64
  %25 = getelementptr inbounds i32, ptr %20, i64 %24
  %26 = load i32, ptr %25, align 4
  %27 = xor i32 %26, %17
  store i32 %27, ptr %25, align 4
  ret void
}

; Function Attrs: nounwind uwtable
define internal ptr @Aig_ManConst1(ptr noundef %0) #0 {
  %2 = alloca ptr, align 8
  store ptr %0, ptr %2, align 8
  %3 = load ptr, ptr %2, align 8
  %4 = getelementptr inbounds %struct.Aig_Man_t_, ptr %3, i32 0, i32 6
  %5 = load ptr, ptr %4, align 8
  ret ptr %5
}

; Function Attrs: nounwind uwtable
define i32 @Pdr_ManSimDataInit(ptr noundef %0, ptr noundef %1, ptr noundef %2, ptr noundef %3, ptr noundef %4, ptr noundef %5, ptr noundef %6) #0 {
  %8 = alloca i32, align 4
  %9 = alloca ptr, align 8
  %10 = alloca ptr, align 8
  %11 = alloca ptr, align 8
  %12 = alloca ptr, align 8
  %13 = alloca ptr, align 8
  %14 = alloca ptr, align 8
  %15 = alloca ptr, align 8
  %16 = alloca ptr, align 8
  %17 = alloca i32, align 4
  store ptr %0, ptr %9, align 8
  store ptr %1, ptr %10, align 8
  store ptr %2, ptr %11, align 8
  store ptr %3, ptr %12, align 8
  store ptr %4, ptr %13, align 8
  store ptr %5, ptr %14, align 8
  store ptr %6, ptr %15, align 8
  %18 = load ptr, ptr %9, align 8
  %19 = load ptr, ptr %9, align 8
  %20 = call ptr @Aig_ManConst1(ptr noundef %19)
  call void @Pdr_ManSimInfoSet(ptr noundef %18, ptr noundef %20, i32 noundef 2)
  store i32 0, ptr %17, align 4
  br label %21

21:                                               ; preds = %42, %7
  %22 = load i32, ptr %17, align 4
  %23 = load ptr, ptr %10, align 8
  %24 = call i32 @Vec_IntSize(ptr noundef %23)
  %25 = icmp slt i32 %22, %24
  br i1 %25, label %26, label %32

26:                                               ; preds = %21
  %27 = load ptr, ptr %9, align 8
  %28 = load ptr, ptr %10, align 8
  %29 = load i32, ptr %17, align 4
  %30 = call i32 @Vec_IntEntry(ptr noundef %28, i32 noundef %29)
  %31 = call ptr @Aig_ManObj(ptr noundef %27, i32 noundef %30)
  store ptr %31, ptr %16, align 8
  br label %32

32:                                               ; preds = %26, %21
  %33 = phi i1 [ false, %21 ], [ true, %26 ]
  br i1 %33, label %34, label %45

34:                                               ; preds = %32
  %35 = load ptr, ptr %9, align 8
  %36 = load ptr, ptr %16, align 8
  %37 = load ptr, ptr %11, align 8
  %38 = load i32, ptr %17, align 4
  %39 = call i32 @Vec_IntEntry(ptr noundef %37, i32 noundef %38)
  %40 = icmp ne i32 %39, 0
  %41 = select i1 %40, i32 2, i32 1
  call void @Pdr_ManSimInfoSet(ptr noundef %35, ptr noundef %36, i32 noundef %41)
  br label %42

42:                                               ; preds = %34
  %43 = load i32, ptr %17, align 4
  %44 = add nsw i32 %43, 1
  store i32 %44, ptr %17, align 4
  br label %21, !llvm.loop !6

45:                                               ; preds = %32
  %46 = load ptr, ptr %15, align 8
  %47 = icmp ne ptr %46, null
  br i1 %47, label %48, label %69

48:                                               ; preds = %45
  store i32 0, ptr %17, align 4
  br label %49

49:                                               ; preds = %65, %48
  %50 = load i32, ptr %17, align 4
  %51 = load ptr, ptr %15, align 8
  %52 = call i32 @Vec_IntSize(ptr noundef %51)
  %53 = icmp slt i32 %50, %52
  br i1 %53, label %54, label %60

54:                                               ; preds = %49
  %55 = load ptr, ptr %9, align 8
  %56 = load ptr, ptr %15, align 8
  %57 = load i32, ptr %17, align 4
  %58 = call i32 @Vec_IntEntry(ptr noundef %56, i32 noundef %57)
  %59 = call ptr @Aig_ManObj(ptr noundef %55, i32 noundef %58)
  store ptr %59, ptr %16, align 8
  br label %60

60:                                               ; preds = %54, %49
  %61 = phi i1 [ false, %49 ], [ true, %54 ]
  br i1 %61, label %62, label %68

62:                                               ; preds = %60
  %63 = load ptr, ptr %9, align 8
  %64 = load ptr, ptr %16, align 8
  call void @Pdr_ManSimInfoSet(ptr noundef %63, ptr noundef %64, i32 noundef 3)
  br label %65

65:                                               ; preds = %62
  %66 = load i32, ptr %17, align 4
  %67 = add nsw i32 %66, 1
  store i32 %67, ptr %17, align 4
  br label %49, !llvm.loop !7

68:                                               ; preds = %60
  br label %69

69:                                               ; preds = %68, %45
  store i32 0, ptr %17, align 4
  br label %70

70:                                               ; preds = %87, %69
  %71 = load i32, ptr %17, align 4
  %72 = load ptr, ptr %12, align 8
  %73 = call i32 @Vec_IntSize(ptr noundef %72)
  %74 = icmp slt i32 %71, %73
  br i1 %74, label %75, label %81

75:                                               ; preds = %70
  %76 = load ptr, ptr %9, align 8
  %77 = load ptr, ptr %12, align 8
  %78 = load i32, ptr %17, align 4
  %79 = call i32 @Vec_IntEntry(ptr noundef %77, i32 noundef %78)
  %80 = call ptr @Aig_ManObj(ptr noundef %76, i32 noundef %79)
  store ptr %80, ptr %16, align 8
  br label %81

81:                                               ; preds = %75, %70
  %82 = phi i1 [ false, %70 ], [ true, %75 ]
  br i1 %82, label %83, label %90

83:                                               ; preds = %81
  %84 = load ptr, ptr %9, align 8
  %85 = load ptr, ptr %16, align 8
  %86 = call i32 @Pdr_ManExtendOneEval(ptr noundef %84, ptr noundef %85)
  br label %87

87:                                               ; preds = %83
  %88 = load i32, ptr %17, align 4
  %89 = add nsw i32 %88, 1
  store i32 %89, ptr %17, align 4
  br label %70, !llvm.loop !8

90:                                               ; preds = %81
  store i32 0, ptr %17, align 4
  br label %91

91:                                               ; preds = %108, %90
  %92 = load i32, ptr %17, align 4
  %93 = load ptr, ptr %13, align 8
  %94 = call i32 @Vec_IntSize(ptr noundef %93)
  %95 = icmp slt i32 %92, %94
  br i1 %95, label %96, label %102

96:                                               ; preds = %91
  %97 = load ptr, ptr %9, align 8
  %98 = load ptr, ptr %13, align 8
  %99 = load i32, ptr %17, align 4
  %100 = call i32 @Vec_IntEntry(ptr noundef %98, i32 noundef %99)
  %101 = call ptr @Aig_ManObj(ptr noundef %97, i32 noundef %100)
  store ptr %101, ptr %16, align 8
  br label %102

102:                                              ; preds = %96, %91
  %103 = phi i1 [ false, %91 ], [ true, %96 ]
  br i1 %103, label %104, label %111

104:                                              ; preds = %102
  %105 = load ptr, ptr %9, align 8
  %106 = load ptr, ptr %16, align 8
  %107 = call i32 @Pdr_ManExtendOneEval(ptr noundef %105, ptr noundef %106)
  br label %108

108:                                              ; preds = %104
  %109 = load i32, ptr %17, align 4
  %110 = add nsw i32 %109, 1
  store i32 %110, ptr %17, align 4
  br label %91, !llvm.loop !9

111:                                              ; preds = %102
  store i32 0, ptr %17, align 4
  br label %112

112:                                              ; preds = %137, %111
  %113 = load i32, ptr %17, align 4
  %114 = load ptr, ptr %13, align 8
  %115 = call i32 @Vec_IntSize(ptr noundef %114)
  %116 = icmp slt i32 %113, %115
  br i1 %116, label %117, label %123

117:                                              ; preds = %112
  %118 = load ptr, ptr %9, align 8
  %119 = load ptr, ptr %13, align 8
  %120 = load i32, ptr %17, align 4
  %121 = call i32 @Vec_IntEntry(ptr noundef %119, i32 noundef %120)
  %122 = call ptr @Aig_ManObj(ptr noundef %118, i32 noundef %121)
  store ptr %122, ptr %16, align 8
  br label %123

123:                                              ; preds = %117, %112
  %124 = phi i1 [ false, %112 ], [ true, %117 ]
  br i1 %124, label %125, label %140

125:                                              ; preds = %123
  %126 = load ptr, ptr %9, align 8
  %127 = load ptr, ptr %16, align 8
  %128 = call i32 @Pdr_ManSimInfoGet(ptr noundef %126, ptr noundef %127)
  %129 = load ptr, ptr %14, align 8
  %130 = load i32, ptr %17, align 4
  %131 = call i32 @Vec_IntEntry(ptr noundef %129, i32 noundef %130)
  %132 = icmp ne i32 %131, 0
  %133 = select i1 %132, i32 2, i32 1
  %134 = icmp ne i32 %128, %133
  br i1 %134, label %135, label %136

135:                                              ; preds = %125
  store i32 0, ptr %8, align 4
  br label %141

136:                                              ; preds = %125
  br label %137

137:                                              ; preds = %136
  %138 = load i32, ptr %17, align 4
  %139 = add nsw i32 %138, 1
  store i32 %139, ptr %17, align 4
  br label %112, !llvm.loop !10

140:                                              ; preds = %123
  store i32 1, ptr %8, align 4
  br label %141

141:                                              ; preds = %140, %135
  %142 = load i32, ptr %8, align 4
  ret i32 %142
}