; Function Attrs: nofree norecurse nosync nounwind memory(readwrite, inaccessiblemem: none) uwtable
define range(i32 0, 2) i32 @Pdr_ManSimDataInit(ptr noundef readonly captures(none) %0, ptr noundef readonly captures(none) %1, ptr noundef readonly captures(none) %2, ptr noundef readonly captures(none) %3, ptr noundef readonly captures(none) %4, ptr noundef readonly captures(none) %5, ptr noundef readonly %6) local_unnamed_addr #3 {
  %8 = getelementptr i8, ptr %0, i64 48
  %.val = load ptr, ptr %8, align 8
  %9 = getelementptr i8, ptr %0, i64 376
  %.val83 = load ptr, ptr %9, align 8
  %10 = getelementptr i8, ptr %.val, i64 36
  %.val84 = load i32, ptr %10, align 4
  %11 = ashr i32 %.val84, 4
  %12 = sext i32 %11 to i64
  %13 = getelementptr inbounds i32, ptr %.val83, i64 %12
  %14 = load i32, ptr %13, align 4
  %15 = shl i32 %.val84, 1
  %16 = and i32 %15, 30
  %17 = lshr i32 %14, %16
  %18 = and i32 %17, 3
  %19 = xor i32 %18, 2
  %20 = shl nuw i32 %19, %16
  %21 = xor i32 %20, %14
  store i32 %21, ptr %13, align 4
  %22 = getelementptr i8, ptr %1, i64 4
  %.val6497 = load i32, ptr %22, align 4
  %23 = icmp sgt i32 %.val6497, 0
  br i1 %23, label %Aig_ManObj.exit.lr.ph, label %.critedge

Aig_ManObj.exit.lr.ph:                            ; preds = %7
  %24 = getelementptr i8, ptr %1, i64 8
  %25 = getelementptr i8, ptr %0, i64 32
  %26 = getelementptr i8, ptr %2, i64 8
  br label %Aig_ManObj.exit

Aig_ManObj.exit:                                  ; preds = %Aig_ManObj.exit.lr.ph, %Aig_ManObj.exit
  %indvars.iv = phi i64 [ 0, %Aig_ManObj.exit.lr.ph ], [ %indvars.iv.next, %Aig_ManObj.exit ]
  %.val71 = load ptr, ptr %24, align 8
  %27 = getelementptr inbounds nuw i32, ptr %.val71, i64 %indvars.iv
  %28 = load i32, ptr %27, align 4
  %.val76 = load ptr, ptr %25, align 8, !nonnull !6, !noundef !6
  %29 = getelementptr i8, ptr %.val76, i64 8
  %.val.i = load ptr, ptr %29, align 8
  %30 = sext i32 %28 to i64
  %31 = getelementptr inbounds ptr, ptr %.val.i, i64 %30
  %32 = load ptr, ptr %31, align 8
  %.val70 = load ptr, ptr %26, align 8
  %33 = getelementptr inbounds nuw i32, ptr %.val70, i64 %indvars.iv
  %34 = load i32, ptr %33, align 4
  %.not59 = icmp eq i32 %34, 0
  %35 = select i1 %.not59, i32 1, i32 2
  %.val81 = load ptr, ptr %9, align 8
  %36 = getelementptr i8, ptr %32, i64 36
  %.val82 = load i32, ptr %36, align 4
  %37 = ashr i32 %.val82, 4
  %38 = sext i32 %37 to i64
  %39 = getelementptr inbounds i32, ptr %.val81, i64 %38
  %40 = load i32, ptr %39, align 4
  %41 = shl i32 %.val82, 1
  %42 = and i32 %41, 30
  %43 = lshr i32 %40, %42
  %44 = and i32 %43, 3
  %45 = xor i32 %44, %35
  %46 = shl nuw i32 %45, %42
  %47 = xor i32 %46, %40
  store i32 %47, ptr %39, align 4
  %indvars.iv.next = add nuw nsw i64 %indvars.iv, 1
  %.val64 = load i32, ptr %22, align 4
  %48 = sext i32 %.val64 to i64
  %49 = icmp slt i64 %indvars.iv.next, %48
  br i1 %49, label %Aig_ManObj.exit, label %.critedge, !llvm.loop !7

.critedge:                                        ; preds = %Aig_ManObj.exit, %7
  %.not = icmp eq ptr %6, null
  br i1 %.not, label %.critedge2, label %.preheader

.preheader:                                       ; preds = %.critedge
  %50 = getelementptr i8, ptr %6, i64 4
  %.val6399 = load i32, ptr %50, align 4
  %51 = icmp sgt i32 %.val6399, 0
  br i1 %51, label %Aig_ManObj.exit87.lr.ph, label %.critedge2

Aig_ManObj.exit87.lr.ph:                          ; preds = %.preheader
  %52 = getelementptr i8, ptr %6, i64 8
  %53 = getelementptr i8, ptr %0, i64 32
  br label %Aig_ManObj.exit87

Aig_ManObj.exit87:                                ; preds = %Aig_ManObj.exit87.lr.ph, %Aig_ManObj.exit87
  %indvars.iv111 = phi i64 [ 0, %Aig_ManObj.exit87.lr.ph ], [ %indvars.iv.next112, %Aig_ManObj.exit87 ]
  %.val69 = load ptr, ptr %52, align 8
  %54 = getelementptr inbounds nuw i32, ptr %.val69, i64 %indvars.iv111
  %55 = load i32, ptr %54, align 4
  %.val75 = load ptr, ptr %53, align 8, !nonnull !6, !noundef !6
  %56 = getelementptr i8, ptr %.val75, i64 8
  %.val.i86 = load ptr, ptr %56, align 8
  %57 = sext i32 %55 to i64
  %58 = getelementptr inbounds ptr, ptr %.val.i86, i64 %57
  %59 = load ptr, ptr %58, align 8
  %.val79 = load ptr, ptr %9, align 8
  %60 = getelementptr i8, ptr %59, i64 36
  %.val80 = load i32, ptr %60, align 4
  %61 = ashr i32 %.val80, 4
  %62 = sext i32 %61 to i64
  %63 = getelementptr inbounds i32, ptr %.val79, i64 %62
  %64 = load i32, ptr %63, align 4
  %65 = shl i32 %.val80, 1
  %66 = and i32 %65, 30
  %67 = lshr i32 %64, %66
  %68 = and i32 %67, 3
  %69 = xor i32 %68, 3
  %70 = shl nuw i32 %69, %66
  %71 = xor i32 %70, %64
  store i32 %71, ptr %63, align 4
  %indvars.iv.next112 = add nuw nsw i64 %indvars.iv111, 1
  %.val63 = load i32, ptr %50, align 4
  %72 = sext i32 %.val63 to i64
  %73 = icmp slt i64 %indvars.iv.next112, %72
  br i1 %73, label %Aig_ManObj.exit87, label %.critedge2, !llvm.loop !8

.critedge2:                                       ; preds = %Aig_ManObj.exit87, %.preheader, %.critedge
  %74 = getelementptr i8, ptr %3, i64 4
  %.val62101 = load i32, ptr %74, align 4
  %75 = icmp sgt i32 %.val62101, 0
  br i1 %75, label %.lr.ph, label %.critedge4.preheader

.lr.ph:                                           ; preds = %.critedge2
  %76 = getelementptr i8, ptr %0, i64 32
  %77 = getelementptr i8, ptr %3, i64 8
  br label %82

.critedge4.preheader:                             ; preds = %Aig_ManObj.exit90, %.critedge2
  %78 = getelementptr i8, ptr %4, i64 4
  %.val61103 = load i32, ptr %78, align 4
  %79 = icmp sgt i32 %.val61103, 0
  br i1 %79, label %.lr.ph105, label %.critedge8

.lr.ph105:                                        ; preds = %.critedge4.preheader
  %80 = getelementptr i8, ptr %0, i64 32
  %81 = getelementptr i8, ptr %4, i64 8
  br label %99

82:                                               ; preds = %.lr.ph, %Aig_ManObj.exit90
  %indvars.iv114 = phi i64 [ 0, %.lr.ph ], [ %indvars.iv.next115, %Aig_ManObj.exit90 ]
  %.val74 = load ptr, ptr %76, align 8
  %.not.i88 = icmp eq ptr %.val74, null
  br i1 %.not.i88, label %Aig_ManObj.exit90, label %83

83:                                               ; preds = %82
  %.val68 = load ptr, ptr %77, align 8
  %84 = getelementptr inbounds nuw i32, ptr %.val68, i64 %indvars.iv114
  %85 = load i32, ptr %84, align 4
  %86 = getelementptr i8, ptr %.val74, i64 8
  %.val.i89 = load ptr, ptr %86, align 8
  %87 = sext i32 %85 to i64
  %88 = getelementptr inbounds ptr, ptr %.val.i89, i64 %87
  %89 = load ptr, ptr %88, align 8
  br label %Aig_ManObj.exit90

Aig_ManObj.exit90:                                ; preds = %82, %83
  %90 = phi ptr [ %89, %83 ], [ null, %82 ]
  %91 = tail call i32 @Pdr_ManExtendOneEval(ptr noundef nonnull %0, ptr noundef %90)
  %indvars.iv.next115 = add nuw nsw i64 %indvars.iv114, 1
  %.val62 = load i32, ptr %74, align 4
  %92 = sext i32 %.val62 to i64
  %93 = icmp slt i64 %indvars.iv.next115, %92
  br i1 %93, label %82, label %.critedge4.preheader, !llvm.loop !9

.critedge6.preheader:                             ; preds = %Aig_ManObj.exit93
  %94 = icmp sgt i32 %.val61, 0
  br i1 %94, label %Aig_ManObj.exit96.lr.ph, label %.critedge8

Aig_ManObj.exit96.lr.ph:                          ; preds = %.critedge6.preheader
  %95 = getelementptr i8, ptr %4, i64 8
  %.val66 = load ptr, ptr %95, align 8
  %96 = getelementptr i8, ptr %0, i64 32
  %.val72 = load ptr, ptr %96, align 8, !nonnull !6, !noundef !6
  %97 = getelementptr i8, ptr %.val72, i64 8
  %.val.i95 = load ptr, ptr %97, align 8
  %.val77 = load ptr, ptr %9, align 8
  %98 = getelementptr i8, ptr %5, i64 8
  %.val65 = load ptr, ptr %98, align 8
  %wide.trip.count = zext nneg i32 %.val61 to i64
  br label %Aig_ManObj.exit96

99:                                               ; preds = %.lr.ph105, %Aig_ManObj.exit93
  %indvars.iv117 = phi i64 [ 0, %.lr.ph105 ], [ %indvars.iv.next118, %Aig_ManObj.exit93 ]
  %.val73 = load ptr, ptr %80, align 8
  %.not.i91 = icmp eq ptr %.val73, null
  br i1 %.not.i91, label %Aig_ManObj.exit93, label %100

100:                                              ; preds = %99
  %.val67 = load ptr, ptr %81, align 8
  %101 = getelementptr inbounds nuw i32, ptr %.val67, i64 %indvars.iv117
  %102 = load i32, ptr %101, align 4
  %103 = getelementptr i8, ptr %.val73, i64 8
  %.val.i92 = load ptr, ptr %103, align 8
  %104 = sext i32 %102 to i64
  %105 = getelementptr inbounds ptr, ptr %.val.i92, i64 %104
  %106 = load ptr, ptr %105, align 8
  br label %Aig_ManObj.exit93

Aig_ManObj.exit93:                                ; preds = %99, %100
  %107 = phi ptr [ %106, %100 ], [ null, %99 ]
  %108 = tail call i32 @Pdr_ManExtendOneEval(ptr noundef nonnull %0, ptr noundef %107)
  %indvars.iv.next118 = add nuw nsw i64 %indvars.iv117, 1
  %.val61 = load i32, ptr %78, align 4
  %109 = sext i32 %.val61 to i64
  %110 = icmp slt i64 %indvars.iv.next118, %109
  br i1 %110, label %99, label %.critedge6.preheader, !llvm.loop !10

.critedge6:                                       ; preds = %Aig_ManObj.exit96
  %indvars.iv.next121 = add nuw nsw i64 %indvars.iv120, 1
  %exitcond.not = icmp eq i64 %indvars.iv.next121, %wide.trip.count
  br i1 %exitcond.not, label %.critedge8, label %Aig_ManObj.exit96, !llvm.loop !11

Aig_ManObj.exit96:                                ; preds = %Aig_ManObj.exit96.lr.ph, %.critedge6
  %indvars.iv120 = phi i64 [ 0, %Aig_ManObj.exit96.lr.ph ], [ %indvars.iv.next121, %.critedge6 ]
  %111 = getelementptr inbounds nuw i32, ptr %.val66, i64 %indvars.iv120
  %112 = load i32, ptr %111, align 4
  %113 = sext i32 %112 to i64
  %114 = getelementptr inbounds ptr, ptr %.val.i95, i64 %113
  %115 = load ptr, ptr %114, align 8
  %116 = getelementptr i8, ptr %115, i64 36
  %.val78 = load i32, ptr %116, align 4
  %117 = ashr i32 %.val78, 4
  %118 = sext i32 %117 to i64
  %119 = getelementptr inbounds i32, ptr %.val77, i64 %118
  %120 = load i32, ptr %119, align 4
  %121 = shl i32 %.val78, 1
  %122 = and i32 %121, 30
  %123 = lshr i32 %120, %122
  %124 = and i32 %123, 3
  %125 = getelementptr inbounds nuw i32, ptr %.val65, i64 %indvars.iv120
  %126 = load i32, ptr %125, align 4
  %.not57 = icmp eq i32 %126, 0
  %127 = select i1 %.not57, i32 1, i32 2
  %.not58 = icmp eq i32 %124, %127
  br i1 %.not58, label %.critedge6, label %.critedge8

.critedge8:                                       ; preds = %Aig_ManObj.exit96, %.critedge6, %.critedge4.preheader, %.critedge6.preheader
  %.055 = phi i32 [ 1, %.critedge6.preheader ], [ 1, %.critedge4.preheader ], [ 1, %.critedge6 ], [ 0, %Aig_ManObj.exit96 ]
  ret i32 %.055
}